target datalayout = "e-m:e-p270:32:32-p271:32:32-p272:64:64-i64:64-i128:128-f80:128-n8:16:32:64-S128"
target triple = "x86_64-pc-linux-gnu"

%struct.AVFilterContext = type { ptr, ptr, ptr, ptr, ptr, i32, ptr, ptr, i32, ptr, ptr, i32, i32, ptr, ptr, ptr, ptr, i32, ptr, i32, i32 }
%struct.StackContext = type { ptr, ptr, i32, ptr, i32, i32, i32, i32, i32, i32, [4 x i8], ptr, i32, %struct.FFDrawContext, %struct.FFDrawColor, ptr, ptr, %struct.FFFrameSync }
%struct.FFDrawContext = type { ptr, i32, i32, [4 x i32], [4 x i8], [4 x i8], i8, i8, i32, i32, i32, [3 x [3 x double]] }
%struct.FFDrawColor = type { [4 x i8], [4 x %union.anon.2] }
%union.anon.2 = type { [4 x i32] }
%struct.FFFrameSync = type { ptr, ptr, i32, %struct.AVRational, i64, ptr, ptr, i32, i32, i8, i8, ptr, i32, i32, i32, i32 }
%struct.AVRational = type { i32, i32 }
%struct.AVFilterLink = type { ptr, ptr, ptr, ptr, i32, i32, i32, i32, %struct.AVRational, i32, i32, i32, %struct.AVChannelLayout, %struct.AVRational, ptr, i32, %struct.AVFilterFormatsConfig, %struct.AVFilterFormatsConfig }
%struct.AVChannelLayout = type { i32, i32, %union.anon.1, ptr }
%union.anon.1 = type { i64 }
%struct.AVFilterFormatsConfig = type { ptr, ptr, ptr, ptr, ptr }
%struct.AVFrame = type { [8 x ptr], [8 x i32], ptr, i32, i32, i32, i32, i32, %struct.AVRational, i64, i64, %struct.AVRational, i32, ptr, i32, i32, [8 x ptr], ptr, i32, ptr, i32, i32, i32, i32, i32, i32, i32, i64, ptr, i32, ptr, ptr, i64, i64, i64, i64, ptr, %struct.AVChannelLayout, i64 }

; Function Attrs: nounwind uwtable
define internal i32 @process_frame(ptr noundef %0) #1 {
  %2 = alloca i32, align 4
  %3 = alloca ptr, align 8
  %4 = alloca ptr, align 8
  %5 = alloca ptr, align 8
  %6 = alloca ptr, align 8
  %7 = alloca ptr, align 8
  %8 = alloca ptr, align 8
  %9 = alloca i32, align 4
  %10 = alloca i32, align 4
  %11 = alloca i32, align 4
  store ptr %0, ptr %3, align 8, !tbaa !103
  call void @llvm.lifetime.start.p0(i64 8, ptr %4) #11
  %12 = load ptr, ptr %3, align 8, !tbaa !103
  %13 = getelementptr inbounds nuw %struct.FFFrameSync, ptr %12, i32 0, i32 1
  %14 = load ptr, ptr %13, align 8, !tbaa !105
  store ptr %14, ptr %4, align 8, !tbaa !4
  call void @llvm.lifetime.start.p0(i64 8, ptr %5) #11
  %15 = load ptr, ptr %4, align 8, !tbaa !4
  %16 = getelementptr inbounds nuw %struct.AVFilterContext, ptr %15, i32 0, i32 7
  %17 = load ptr, ptr %16, align 8, !tbaa !106
  %18 = getelementptr inbounds ptr, ptr %17, i64 0
  %19 = load ptr, ptr %18, align 8, !tbaa !55
  store ptr %19, ptr %5, align 8, !tbaa !55
  call void @llvm.lifetime.start.p0(i64 8, ptr %6) #11
  %20 = load ptr, ptr %3, align 8, !tbaa !103
  %21 = getelementptr inbounds nuw %struct.FFFrameSync, ptr %20, i32 0, i32 6
  %22 = load ptr, ptr %21, align 8, !tbaa !107
  store ptr %22, ptr %6, align 8, !tbaa !22
  call void @llvm.lifetime.start.p0(i64 8, ptr %7) #11
  %23 = load ptr, ptr %6, align 8, !tbaa !22
  %24 = getelementptr inbounds nuw %struct.StackContext, ptr %23, i32 0, i32 16
  %25 = load ptr, ptr %24, align 8, !tbaa !46
  store ptr %25, ptr %7, align 8, !tbaa !108
  call void @llvm.lifetime.start.p0(i64 8, ptr %8) #11
  call void @llvm.lifetime.start.p0(i64 4, ptr %9) #11
  call void @llvm.lifetime.start.p0(i64 4, ptr %10) #11
  store i32 0, ptr %9, align 4, !tbaa !43
  br label %26

26:                                               ; preds = %45, %1
  %27 = load i32, ptr %9, align 4, !tbaa !43
  %28 = load ptr, ptr %6, align 8, !tbaa !22
  %29 = getelementptr inbounds nuw %struct.StackContext, ptr %28, i32 0, i32 2
  %30 = load i32, ptr %29, align 8, !tbaa !45
  %31 = icmp slt i32 %27, %30
  br i1 %31, label %32, label %48

32:                                               ; preds = %26
  %33 = load ptr, ptr %6, align 8, !tbaa !22
  %34 = getelementptr inbounds nuw %struct.StackContext, ptr %33, i32 0, i32 17
  %35 = load i32, ptr %9, align 4, !tbaa !43
  %36 = load ptr, ptr %7, align 8, !tbaa !108
  %37 = load i32, ptr %9, align 4, !tbaa !43
  %38 = sext i32 %37 to i64
  %39 = getelementptr inbounds ptr, ptr %36, i64 %38
  %40 = call i32 @ff_framesync_get_frame(ptr noundef %34, i32 noundef %35, ptr noundef %39, i32 noundef 0)
  store i32 %40, ptr %10, align 4, !tbaa !43
  %41 = icmp slt i32 %40, 0
  br i1 %41, label %42, label %44

42:                                               ; preds = %32
  %43 = load i32, ptr %10, align 4, !tbaa !43
  store i32 %43, ptr %2, align 4
  store i32 1, ptr %11, align 4
  br label %122

44:                                               ; preds = %32
  br label %45

45:                                               ; preds = %44
  %46 = load i32, ptr %9, align 4, !tbaa !43
  %47 = add nsw i32 %46, 1
  store i32 %47, ptr %9, align 4, !tbaa !43
  br label %26, !llvm.loop !109

48:                                               ; preds = %26
  %49 = load ptr, ptr %5, align 8, !tbaa !55
  %50 = load ptr, ptr %5, align 8, !tbaa !55
  %51 = getelementptr inbounds nuw %struct.AVFilterLink, ptr %50, i32 0, i32 6
  %52 = load i32, ptr %51, align 8, !tbaa !69
  %53 = load ptr, ptr %5, align 8, !tbaa !55
  %54 = getelementptr inbounds nuw %struct.AVFilterLink, ptr %53, i32 0, i32 7
  %55 = load i32, ptr %54, align 4, !tbaa !68
  %56 = call ptr @ff_get_video_buffer(ptr noundef %49, i32 noundef %52, i32 noundef %55)
  store ptr %56, ptr %8, align 8, !tbaa !110
  %57 = load ptr, ptr %8, align 8, !tbaa !110
  %58 = icmp ne ptr %57, null
  br i1 %58, label %60, label %59

59:                                               ; preds = %48
  store i32 -12, ptr %2, align 4
  store i32 1, ptr %11, align 4
  br label %122

60:                                               ; preds = %48
  %61 = load ptr, ptr %6, align 8, !tbaa !22
  %62 = getelementptr inbounds nuw %struct.StackContext, ptr %61, i32 0, i32 17
  %63 = getelementptr inbounds nuw %struct.FFFrameSync, ptr %62, i32 0, i32 4
  %64 = load i64, ptr %63, align 8, !tbaa !111
  %65 = load ptr, ptr %6, align 8, !tbaa !22
  %66 = getelementptr inbounds nuw %struct.StackContext, ptr %65, i32 0, i32 17
  %67 = getelementptr inbounds nuw %struct.FFFrameSync, ptr %66, i32 0, i32 3
  %68 = load ptr, ptr %5, align 8, !tbaa !55
  %69 = getelementptr inbounds nuw %struct.AVFilterLink, ptr %68, i32 0, i32 13
  %70 = load i64, ptr %67, align 4
  %71 = load i64, ptr %69, align 8
  %72 = call i64 @av_rescale_q(i64 noundef %64, i64 %70, i64 %71) #13
  %73 = load ptr, ptr %8, align 8, !tbaa !110
  %74 = getelementptr inbounds nuw %struct.AVFrame, ptr %73, i32 0, i32 9
  store i64 %72, ptr %74, align 8, !tbaa !112
  %75 = load ptr, ptr %8, align 8, !tbaa !110
  %76 = getelementptr inbounds nuw %struct.AVFrame, ptr %75, i32 0, i32 8
  %77 = load ptr, ptr %5, align 8, !tbaa !55
  %78 = getelementptr inbounds nuw %struct.AVFilterLink, ptr %77, i32 0, i32 8
  call void @llvm.memcpy.p0.p0.i64(ptr align 4 %76, ptr align 8 %78, i64 8, i1 false), !tbaa.struct !67
  %79 = load ptr, ptr %6, align 8, !tbaa !22
  %80 = getelementptr inbounds nuw %struct.StackContext, ptr %79, i32 0, i32 12
  %81 = load i32, ptr %80, align 8, !tbaa !40
  %82 = icmp ne i32 %81, 0
  br i1 %82, label %83, label %100

83:                                               ; preds = %60
  %84 = load ptr, ptr %6, align 8, !tbaa !22
  %85 = getelementptr inbounds nuw %struct.StackContext, ptr %84, i32 0, i32 13
  %86 = load ptr, ptr %6, align 8, !tbaa !22
  %87 = getelementptr inbounds nuw %struct.StackContext, ptr %86, i32 0, i32 14
  %88 = load ptr, ptr %8, align 8, !tbaa !110
  %89 = getelementptr inbounds nuw %struct.AVFrame, ptr %88, i32 0, i32 0
  %90 = getelementptr inbounds [8 x ptr], ptr %89, i64 0, i64 0
  %91 = load ptr, ptr %8, align 8, !tbaa !110
  %92 = getelementptr inbounds nuw %struct.AVFrame, ptr %91, i32 0, i32 1
  %93 = getelementptr inbounds [8 x i32], ptr %92, i64 0, i64 0
  %94 = load ptr, ptr %5, align 8, !tbaa !55
  %95 = getelementptr inbounds nuw %struct.AVFilterLink, ptr %94, i32 0, i32 6
  %96 = load i32, ptr %95, align 8, !tbaa !69
  %97 = load ptr, ptr %5, align 8, !tbaa !55
  %98 = getelementptr inbounds nuw %struct.AVFilterLink, ptr %97, i32 0, i32 7
  %99 = load i32, ptr %98, align 4, !tbaa !68
  call void @ff_fill_rectangle(ptr noundef %85, ptr noundef %87, ptr noundef %90, ptr noundef %93, i32 noundef 0, i32 noundef 0, i32 noundef %96, i32 noundef %99)
  br label %100

100:                                              ; preds = %83, %60
  %101 = load ptr, ptr %4, align 8, !tbaa !4
  %102 = load ptr, ptr %8, align 8, !tbaa !110
  %103 = load ptr, ptr %6, align 8, !tbaa !22
  %104 = getelementptr inbounds nuw %struct.StackContext, ptr %103, i32 0, i32 2
  %105 = load i32, ptr %104, align 8, !tbaa !45
  %106 = load ptr, ptr %4, align 8, !tbaa !4
  %107 = call i32 @ff_filter_get_nb_threads(ptr noundef %106) #12
  %108 = icmp sgt i32 %105, %107
  br i1 %108, label %109, label %112

109:                                              ; preds = %100
  %110 = load ptr, ptr %4, align 8, !tbaa !4
  %111 = call i32 @ff_filter_get_nb_threads(ptr noundef %110) #12
  br label %116

112:                                              ; preds = %100
  %113 = load ptr, ptr %6, align 8, !tbaa !22
  %114 = getelementptr inbounds nuw %struct.StackContext, ptr %113, i32 0, i32 2
  %115 = load i32, ptr %114, align 8, !tbaa !45
  br label %116

116:                                              ; preds = %112, %109
  %117 = phi i32 [ %111, %109 ], [ %115, %112 ]
  %118 = call i32 @ff_filter_execute(ptr noundef %101, ptr noundef @process_slice, ptr noundef %102, ptr noundef null, i32 noundef %117)
  %119 = load ptr, ptr %5, align 8, !tbaa !55
  %120 = load ptr, ptr %8, align 8, !tbaa !110
  %121 = call i32 @ff_filter_frame(ptr noundef %119, ptr noundef %120)
  store i32 %121, ptr %2, align 4
  store i32 1, ptr %11, align 4
  br label %122

122:                                              ; preds = %116, %59, %42
  call void @llvm.lifetime.end.p0(i64 4, ptr %10) #11
  call void @llvm.lifetime.end.p0(i64 4, ptr %9) #11
  call void @llvm.lifetime.end.p0(i64 8, ptr %8) #11
  call void @llvm.lifetime.end.p0(i64 8, ptr %7) #11
  call void @llvm.lifetime.end.p0(i64 8, ptr %6) #11
  call void @llvm.lifetime.end.p0(i64 8, ptr %5) #11
  call void @llvm.lifetime.end.p0(i64 8, ptr %4) #11
  %123 = load i32, ptr %2, align 4
  ret i32 %123
}