; Function Attrs: nounwind uwtable
define internal i32 @process_frame(ptr noundef readonly captures(none) %0) #1 {
  %2 = getelementptr inbounds nuw i8, ptr %0, i64 8
  %3 = load ptr, ptr %2, align 8, !tbaa !90
  %4 = getelementptr inbounds nuw i8, ptr %3, i64 56
  %5 = load ptr, ptr %4, align 8, !tbaa !91
  %6 = load ptr, ptr %5, align 8, !tbaa !56
  %7 = getelementptr inbounds nuw i8, ptr %0, i64 48
  %8 = load ptr, ptr %7, align 8, !tbaa !92
  %9 = getelementptr inbounds nuw i8, ptr %8, i64 288
  %10 = load ptr, ptr %9, align 8, !tbaa !42
  %11 = getelementptr inbounds nuw i8, ptr %8, i64 16
  %12 = load i32, ptr %11, align 8, !tbaa !41
  %13 = icmp sgt i32 %12, 0
  br i1 %13, label %.lr.ph, label %._crit_edge

.lr.ph:                                           ; preds = %1
  %14 = getelementptr inbounds nuw i8, ptr %8, i64 296
  br label %19

15:                                               ; preds = %19
  %indvars.iv.next = add nuw nsw i64 %indvars.iv, 1
  %16 = load i32, ptr %11, align 8, !tbaa !41
  %17 = sext i32 %16 to i64
  %18 = icmp slt i64 %indvars.iv.next, %17
  br i1 %18, label %19, label %._crit_edge, !llvm.loop !93

19:                                               ; preds = %.lr.ph, %15
  %indvars.iv = phi i64 [ 0, %.lr.ph ], [ %indvars.iv.next, %15 ]
  %20 = getelementptr inbounds nuw ptr, ptr %10, i64 %indvars.iv
  %21 = trunc nuw nsw i64 %indvars.iv to i32
  %22 = tail call i32 @ff_framesync_get_frame(ptr noundef nonnull %14, i32 noundef %21, ptr noundef %20, i32 noundef 0) #11
  %23 = icmp slt i32 %22, 0
  br i1 %23, label %.loopexit, label %15

._crit_edge:                                      ; preds = %15, %1
  %24 = getelementptr inbounds nuw i8, ptr %6, i64 40
  %25 = load i32, ptr %24, align 8, !tbaa !59
  %26 = getelementptr inbounds nuw i8, ptr %6, i64 44
  %27 = load i32, ptr %26, align 4, !tbaa !58
  %28 = tail call ptr @ff_get_video_buffer(ptr noundef %6, i32 noundef %25, i32 noundef %27) #11
  %.not = icmp eq ptr %28, null
  br i1 %.not, label %.loopexit, label %29

29:                                               ; preds = %._crit_edge
  %30 = getelementptr inbounds nuw i8, ptr %8, i64 328
  %31 = load i64, ptr %30, align 8, !tbaa !94
  %32 = getelementptr inbounds nuw i8, ptr %8, i64 316
  %33 = getelementptr inbounds nuw i8, ptr %6, i64 96
  %34 = load i64, ptr %32, align 4
  %35 = load i64, ptr %33, align 8
  %36 = tail call i64 @av_rescale_q(i64 noundef %31, i64 %34, i64 %35) #12
  %37 = getelementptr inbounds nuw i8, ptr %28, i64 136
  store i64 %36, ptr %37, align 8, !tbaa !95
  %38 = getelementptr inbounds nuw i8, ptr %28, i64 124
  %39 = getelementptr inbounds nuw i8, ptr %6, i64 48
  %40 = load i64, ptr %39, align 8
  store i64 %40, ptr %38, align 4
  %41 = getelementptr inbounds nuw i8, ptr %8, i64 72
  %42 = load i32, ptr %41, align 8, !tbaa !37
  %.not42 = icmp eq i32 %42, 0
  br i1 %.not42, label %49, label %43

43:                                               ; preds = %29
  %44 = getelementptr inbounds nuw i8, ptr %8, i64 80
  %45 = getelementptr inbounds nuw i8, ptr %8, i64 208
  %46 = getelementptr inbounds nuw i8, ptr %28, i64 64
  %47 = load i32, ptr %24, align 8, !tbaa !59
  %48 = load i32, ptr %26, align 4, !tbaa !58
  tail call void @ff_fill_rectangle(ptr noundef nonnull %44, ptr noundef nonnull %45, ptr noundef nonnull %28, ptr noundef nonnull %46, i32 noundef 0, i32 noundef 0, i32 noundef %47, i32 noundef %48) #11
  br label %49

49:                                               ; preds = %43, %29
  %50 = load i32, ptr %11, align 8, !tbaa !41
  %51 = tail call i32 @ff_filter_get_nb_threads(ptr noundef %3) #10
  %. = tail call i32 @llvm.smin.i32(i32 %50, i32 %51)
  %52 = tail call i32 @ff_filter_execute(ptr noundef %3, ptr noundef nonnull @process_slice, ptr noundef nonnull %28, ptr noundef null, i32 noundef %.) #11
  %53 = tail call i32 @ff_filter_frame(ptr noundef nonnull %6, ptr noundef nonnull %28) #11
  br label %.loopexit

.loopexit:                                        ; preds = %19, %._crit_edge, %49
  %.0 = phi i32 [ %53, %49 ], [ -12, %._crit_edge ], [ %22, %19 ]
  ret i32 %.0
}